target datalayout = "e-m:e-p270:32:32-p271:32:32-p272:64:64-i64:64-i128:128-f80:128-n8:16:32:64-S128"
target triple = "x86_64-pc-linux-gnu"

; Function Attrs: mustprogress uwtable
define internal void @"_ZNSt14_Function_base13_Base_managerIZN2cv4gapi3wip5asyncERNS1_9GCompiledEOSt8functionIFvNSt15__exception_ptr13exception_ptrEEEOSt6vectorINS1_7GRunArgESaISD_EEOSC_INS1_4util7variantIJPNS1_4UMatEPNS1_3MatEPNS1_4RMatEPNS1_7Scalar_IdEEPNS1_10MediaFrameENS1_6detail9VectorRefENSU_9OpaqueRefEEEESaISX_EEE3$_0E9_M_createIRKS11_EEvRSt9_Any_dataOT_St17integral_constantIbLb0EE"(ptr noundef nonnull align 8 dereferenceable(16) %0, ptr noundef nonnull align 8 dereferenceable(96) %1) #1 align 2 personality ptr @__gxx_personality_v0 {
  %3 = alloca ptr, align 8
  %4 = alloca ptr, align 8
  %5 = alloca ptr, align 8
  %6 = alloca i32, align 4
  store ptr %0, ptr %3, align 8
  store ptr %1, ptr %4, align 8
  %7 = call noalias noundef nonnull ptr @_Znwm(i64 noundef 96) #15
  %8 = load ptr, ptr %4, align 8
  invoke void @"_ZZN2cv4gapi3wip5asyncERNS_9GCompiledEOSt8functionIFvNSt15__exception_ptr13exception_ptrEEEOSt6vectorINS_7GRunArgESaISB_EEOSA_INS_4util7variantIJPNS_4UMatEPNS_3MatEPNS_4RMatEPNS_7Scalar_IdEEPNS_10MediaFrameENS_6detail9VectorRefENSS_9OpaqueRefEEEESaISV_EEEN3$_0C2ERKSZ_"(ptr noundef nonnull align 8 dereferenceable(96) %7, ptr noundef nonnull align 8 dereferenceable(96) %8)
          to label %9 unwind label %12

9:                                                ; preds = %2
  %10 = load ptr, ptr %3, align 8
  %11 = call noundef nonnull align 8 dereferenceable(8) ptr @"_ZNSt9_Any_data9_M_accessIPZN2cv4gapi3wip5asyncERNS1_9GCompiledEOSt8functionIFvNSt15__exception_ptr13exception_ptrEEEOSt6vectorINS1_7GRunArgESaISD_EEOSC_INS1_4util7variantIJPNS1_4UMatEPNS1_3MatEPNS1_4RMatEPNS1_7Scalar_IdEEPNS1_10MediaFrameENS1_6detail9VectorRefENSU_9OpaqueRefEEEESaISX_EEE3$_0EERT_v"(ptr noundef nonnull align 8 dereferenceable(16) %10) #3
  store ptr %7, ptr %11, align 8
  ret void

12:                                               ; preds = %2
  %13 = landingpad { ptr, i32 }
          cleanup
  %14 = extractvalue { ptr, i32 } %13, 0
  store ptr %14, ptr %5, align 8
  %15 = extractvalue { ptr, i32 } %13, 1
  store i32 %15, ptr %6, align 4
  call void @_ZdlPv(ptr noundef %7) #16
  br label %16

16:                                               ; preds = %12
  %17 = load ptr, ptr %5, align 8
  %18 = load i32, ptr %6, align 4
  %19 = insertvalue { ptr, i32 } poison, ptr %17, 0
  %20 = insertvalue { ptr, i32 } %19, i32 %18, 1
  resume { ptr, i32 } %20
}

; Function Attrs: mustprogress nounwind uwtable
define linkonce_odr hidden noundef ptr @_ZNKSt9_Any_data9_M_accessEv(ptr noundef nonnull align 8 dereferenceable(16) %0) #0 comdat align 2 {
  %2 = alloca ptr, align 8
  store ptr %0, ptr %2, align 8
  %3 = load ptr, ptr %2, align 8
  %4 = getelementptr inbounds [16 x i8], ptr %3, i64 0, i64 0
  ret ptr %4
}

; Function Attrs: mustprogress nounwind uwtable
define internal void @"_ZNSt14_Function_base13_Base_managerIZN2cv4gapi3wip5asyncERNS1_9GCompiledEOSt8functionIFvNSt15__exception_ptr13exception_ptrEEEOSt6vectorINS1_7GRunArgESaISD_EEOSC_INS1_4util7variantIJPNS1_4UMatEPNS1_3MatEPNS1_4RMatEPNS1_7Scalar_IdEEPNS1_10MediaFrameENS1_6detail9VectorRefENSU_9OpaqueRefEEEESaISX_EEE3$_0E10_M_destroyERSt9_Any_dataSt17integral_constantIbLb0EE"(ptr noundef nonnull align 8 dereferenceable(16) %0) #0 align 2 {
  %2 = alloca ptr, align 8
  store ptr %0, ptr %2, align 8
  %3 = load ptr, ptr %2, align 8
  %4 = call noundef nonnull align 8 dereferenceable(8) ptr @"_ZNSt9_Any_data9_M_accessIPZN2cv4gapi3wip5asyncERNS1_9GCompiledEOSt8functionIFvNSt15__exception_ptr13exception_ptrEEEOSt6vectorINS1_7GRunArgESaISD_EEOSC_INS1_4util7variantIJPNS1_4UMatEPNS1_3MatEPNS1_4RMatEPNS1_7Scalar_IdEEPNS1_10MediaFrameENS1_6detail9VectorRefENSU_9OpaqueRefEEEESaISX_EEE3$_0EERT_v"(ptr noundef nonnull align 8 dereferenceable(16) %3) #3
  %5 = load ptr, ptr %4, align 8
  %6 = icmp eq ptr %5, null
  br i1 %6, label %8, label %7

7:                                                ; preds = %1
  call void @"_ZZN2cv4gapi3wip5asyncERNS_9GCompiledEOSt8functionIFvNSt15__exception_ptr13exception_ptrEEEOSt6vectorINS_7GRunArgESaISB_EEOSA_INS_4util7variantIJPNS_4UMatEPNS_3MatEPNS_4RMatEPNS_7Scalar_IdEEPNS_10MediaFrameENS_6detail9VectorRefENSS_9OpaqueRefEEEESaISV_EEEN3$_0D2Ev"(ptr noundef nonnull align 8 dereferenceable(96) %5) #3
  call void @_ZdlPv(ptr noundef %5) #16
  br label %8

8:                                                ; preds = %7, %1
  ret void
}

; Function Attrs: mustprogress uwtable
define internal void @"_ZNSt14_Function_base13_Base_managerIZN2cv4gapi3wip5asyncERNS1_9GCompiledEOSt8functionIFvNSt15__exception_ptr13exception_ptrEEEOSt6vectorINS1_7GRunArgESaISD_EEOSC_INS1_4util7variantIJPNS1_4UMatEPNS1_3MatEPNS1_4RMatEPNS1_7Scalar_IdEEPNS1_10MediaFrameENS1_6detail9VectorRefENSU_9OpaqueRefEEEESaISX_EEE3$_0E15_M_init_functorIRKS11_EEvRSt9_Any_dataOT_"(ptr noundef nonnull align 8 dereferenceable(16) %0, ptr noundef nonnull align 8 dereferenceable(96) %1) #1 align 2 {
  %3 = alloca ptr, align 8
  %4 = alloca ptr, align 8
  store ptr %0, ptr %3, align 8
  store ptr %1, ptr %4, align 8
  %5 = load ptr, ptr %3, align 8
  %6 = load ptr, ptr %4, align 8
  call void @"_ZNSt14_Function_base13_Base_managerIZN2cv4gapi3wip5asyncERNS1_9GCompiledEOSt8functionIFvNSt15__exception_ptr13exception_ptrEEEOSt6vectorINS1_7GRunArgESaISD_EEOSC_INS1_4util7variantIJPNS1_4UMatEPNS1_3MatEPNS1_4RMatEPNS1_7Scalar_IdEEPNS1_10MediaFrameENS1_6detail9VectorRefENSU_9OpaqueRefEEEESaISX_EEE3$_0E9_M_createIRKS11_EEvRSt9_Any_dataOT_St17integral_constantIbLb0EE"(ptr noundef nonnull align 8 dereferenceable(16) %5, ptr noundef nonnull align 8 dereferenceable(96) %6)
  ret void
}

; Function Attrs: mustprogress nounwind uwtable
define internal noundef nonnull align 8 dereferenceable(8) ptr @"_ZNKSt9_Any_data9_M_accessIPZN2cv4gapi3wip5asyncERNS1_9GCompiledEOSt8functionIFvNSt15__exception_ptr13exception_ptrEEEOSt6vectorINS1_7GRunArgESaISD_EEOSC_INS1_4util7variantIJPNS1_4UMatEPNS1_3MatEPNS1_4RMatEPNS1_7Scalar_IdEEPNS1_10MediaFrameENS1_6detail9VectorRefENSU_9OpaqueRefEEEESaISX_EEE3$_0EERKT_v"(ptr noundef nonnull align 8 dereferenceable(16) %0) #0 align 2 {
  %2 = alloca ptr, align 8
  store ptr %0, ptr %2, align 8
  %3 = load ptr, ptr %2, align 8
  %4 = call noundef ptr @_ZNKSt9_Any_data9_M_accessEv(ptr noundef nonnull align 8 dereferenceable(16) %3) #3
  ret ptr %4
}

; Function Attrs: mustprogress nounwind uwtable
define linkonce_odr hidden noundef ptr @_ZNSt9_Any_data9_M_accessEv(ptr noundef nonnull align 8 dereferenceable(16) %0) #0 comdat align 2 {
  %2 = alloca ptr, align 8
  store ptr %0, ptr %2, align 8
  %3 = load ptr, ptr %2, align 8
  %4 = getelementptr inbounds [16 x i8], ptr %3, i64 0, i64 0
  ret ptr %4
}

; Function Attrs: mustprogress uwtable
define internal noundef zeroext i1 @"_ZNSt14_Function_base13_Base_managerIZN2cv4gapi3wip5asyncERNS1_9GCompiledEOSt8functionIFvNSt15__exception_ptr13exception_ptrEEEOSt6vectorINS1_7GRunArgESaISD_EEOSC_INS1_4util7variantIJPNS1_4UMatEPNS1_3MatEPNS1_4RMatEPNS1_7Scalar_IdEEPNS1_10MediaFrameENS1_6detail9VectorRefENSU_9OpaqueRefEEEESaISX_EEE3$_0E10_M_managerERSt9_Any_dataRKS13_St18_Manager_operation"(ptr noundef nonnull align 8 dereferenceable(16) %0, ptr noundef nonnull align 8 dereferenceable(16) %1, i32 noundef %2) #1 align 2 {
  %4 = alloca ptr, align 8
  %5 = alloca ptr, align 8
  %6 = alloca i32, align 4
  store ptr %0, ptr %4, align 8
  store ptr %1, ptr %5, align 8
  store i32 %2, ptr %6, align 4
  %7 = load i32, ptr %6, align 4
  switch i32 %7, label %22 [
    i32 0, label %8
    i32 1, label %11
    i32 2, label %16
    i32 3, label %20
  ]

8:                                                ; preds = %3
  %9 = load ptr, ptr %4, align 8
  %10 = call noundef nonnull align 8 dereferenceable(8) ptr @_ZNSt9_Any_data9_M_accessIPKSt9type_infoEERT_v(ptr noundef nonnull align 8 dereferenceable(16) %9) #3
  store ptr @"_ZTIZN2cv4gapi3wip5asyncERNS_9GCompiledEOSt8functionIFvNSt15__exception_ptr13exception_ptrEEEOSt6vectorINS_7GRunArgESaISB_EEOSA_INS_4util7variantIJPNS_4UMatEPNS_3MatEPNS_4RMatEPNS_7Scalar_IdEEPNS_10MediaFrameENS_6detail9VectorRefENSS_9OpaqueRefEEEESaISV_EEE3$_0", ptr %10, align 8
  br label %22

11:                                               ; preds = %3
  %12 = load ptr, ptr %5, align 8
  %13 = call noundef ptr @"_ZNSt14_Function_base13_Base_managerIZN2cv4gapi3wip5asyncERNS1_9GCompiledEOSt8functionIFvNSt15__exception_ptr13exception_ptrEEEOSt6vectorINS1_7GRunArgESaISD_EEOSC_INS1_4util7variantIJPNS1_4UMatEPNS1_3MatEPNS1_4RMatEPNS1_7Scalar_IdEEPNS1_10MediaFrameENS1_6detail9VectorRefENSU_9OpaqueRefEEEESaISX_EEE3$_0E14_M_get_pointerERKSt9_Any_data"(ptr noundef nonnull align 8 dereferenceable(16) %12) #3
  %14 = load ptr, ptr %4, align 8
  %15 = call noundef nonnull align 8 dereferenceable(8) ptr @"_ZNSt9_Any_data9_M_accessIPZN2cv4gapi3wip5asyncERNS1_9GCompiledEOSt8functionIFvNSt15__exception_ptr13exception_ptrEEEOSt6vectorINS1_7GRunArgESaISD_EEOSC_INS1_4util7variantIJPNS1_4UMatEPNS1_3MatEPNS1_4RMatEPNS1_7Scalar_IdEEPNS1_10MediaFrameENS1_6detail9VectorRefENSU_9OpaqueRefEEEESaISX_EEE3$_0EERT_v"(ptr noundef nonnull align 8 dereferenceable(16) %14) #3
  store ptr %13, ptr %15, align 8
  br label %22

16:                                               ; preds = %3
  %17 = load ptr, ptr %4, align 8
  %18 = load ptr, ptr %5, align 8
  %19 = call noundef ptr @"_ZNSt14_Function_base13_Base_managerIZN2cv4gapi3wip5asyncERNS1_9GCompiledEOSt8functionIFvNSt15__exception_ptr13exception_ptrEEEOSt6vectorINS1_7GRunArgESaISD_EEOSC_INS1_4util7variantIJPNS1_4UMatEPNS1_3MatEPNS1_4RMatEPNS1_7Scalar_IdEEPNS1_10MediaFrameENS1_6detail9VectorRefENSU_9OpaqueRefEEEESaISX_EEE3$_0E14_M_get_pointerERKSt9_Any_data"(ptr noundef nonnull align 8 dereferenceable(16) %18) #3
  call void @"_ZNSt14_Function_base13_Base_managerIZN2cv4gapi3wip5asyncERNS1_9GCompiledEOSt8functionIFvNSt15__exception_ptr13exception_ptrEEEOSt6vectorINS1_7GRunArgESaISD_EEOSC_INS1_4util7variantIJPNS1_4UMatEPNS1_3MatEPNS1_4RMatEPNS1_7Scalar_IdEEPNS1_10MediaFrameENS1_6detail9VectorRefENSU_9OpaqueRefEEEESaISX_EEE3$_0E15_M_init_functorIRKS11_EEvRSt9_Any_dataOT_"(ptr noundef nonnull align 8 dereferenceable(16) %17, ptr noundef nonnull align 8 dereferenceable(96) %19)
  br label %22

20:                                               ; preds = %3
  %21 = load ptr, ptr %4, align 8
  call void @"_ZNSt14_Function_base13_Base_managerIZN2cv4gapi3wip5asyncERNS1_9GCompiledEOSt8functionIFvNSt15__exception_ptr13exception_ptrEEEOSt6vectorINS1_7GRunArgESaISD_EEOSC_INS1_4util7variantIJPNS1_4UMatEPNS1_3MatEPNS1_4RMatEPNS1_7Scalar_IdEEPNS1_10MediaFrameENS1_6detail9VectorRefENSU_9OpaqueRefEEEESaISX_EEE3$_0E10_M_destroyERSt9_Any_dataSt17integral_constantIbLb0EE"(ptr noundef nonnull align 8 dereferenceable(16) %21)
  br label %22

22:                                               ; preds = %20, %16, %11, %8, %3
  ret i1 false
}

; Function Attrs: mustprogress nounwind uwtable
define internal noundef nonnull align 8 dereferenceable(8) ptr @"_ZNSt9_Any_data9_M_accessIPZN2cv4gapi3wip5asyncERNS1_9GCompiledEOSt8functionIFvNSt15__exception_ptr13exception_ptrEEEOSt6vectorINS1_7GRunArgESaISD_EEOSC_INS1_4util7variantIJPNS1_4UMatEPNS1_3MatEPNS1_4RMatEPNS1_7Scalar_IdEEPNS1_10MediaFrameENS1_6detail9VectorRefENSU_9OpaqueRefEEEESaISX_EEE3$_0EERT_v"(ptr noundef nonnull align 8 dereferenceable(16) %0) #0 align 2 {
  %2 = alloca ptr, align 8
  store ptr %0, ptr %2, align 8
  %3 = load ptr, ptr %2, align 8
  %4 = call noundef ptr @_ZNSt9_Any_data9_M_accessEv(ptr noundef nonnull align 8 dereferenceable(16) %3) #3
  ret ptr %4
}

; Function Attrs: mustprogress nounwind uwtable
define internal noundef ptr @"_ZNSt14_Function_base13_Base_managerIZN2cv4gapi3wip5asyncERNS1_9GCompiledEOSt8functionIFvNSt15__exception_ptr13exception_ptrEEEOSt6vectorINS1_7GRunArgESaISD_EEOSC_INS1_4util7variantIJPNS1_4UMatEPNS1_3MatEPNS1_4RMatEPNS1_7Scalar_IdEEPNS1_10MediaFrameENS1_6detail9VectorRefENSU_9OpaqueRefEEEESaISX_EEE3$_0E14_M_get_pointerERKSt9_Any_data"(ptr noundef nonnull align 8 dereferenceable(16) %0) #0 align 2 {
  %2 = alloca ptr, align 8
  store ptr %0, ptr %2, align 8
  %3 = load ptr, ptr %2, align 8
  %4 = call noundef nonnull align 8 dereferenceable(8) ptr @"_ZNKSt9_Any_data9_M_accessIPZN2cv4gapi3wip5asyncERNS1_9GCompiledEOSt8functionIFvNSt15__exception_ptr13exception_ptrEEEOSt6vectorINS1_7GRunArgESaISD_EEOSC_INS1_4util7variantIJPNS1_4UMatEPNS1_3MatEPNS1_4RMatEPNS1_7Scalar_IdEEPNS1_10MediaFrameENS1_6detail9VectorRefENSU_9OpaqueRefEEEESaISX_EEE3$_0EERKT_v"(ptr noundef nonnull align 8 dereferenceable(16) %3) #3
  %5 = load ptr, ptr %4, align 8
  ret ptr %5
}

; Function Attrs: mustprogress nounwind uwtable
define linkonce_odr hidden noundef nonnull align 8 dereferenceable(8) ptr @_ZNSt9_Any_data9_M_accessIPKSt9type_infoEERT_v(ptr noundef nonnull align 8 dereferenceable(16) %0) #0 comdat align 2 {
  %2 = alloca ptr, align 8
  store ptr %0, ptr %2, align 8
  %3 = load ptr, ptr %2, align 8
  %4 = call noundef ptr @_ZNSt9_Any_data9_M_accessEv(ptr noundef nonnull align 8 dereferenceable(16) %3) #3
  ret ptr %4
}

; Function Attrs: mustprogress uwtable
define internal noundef zeroext i1 @"_ZNSt17_Function_handlerIFvvEZN2cv4gapi3wip5asyncERNS1_9GCompiledEOSt8functionIFvNSt15__exception_ptr13exception_ptrEEEOSt6vectorINS1_7GRunArgESaISD_EEOSC_INS1_4util7variantIJPNS1_4UMatEPNS1_3MatEPNS1_4RMatEPNS1_7Scalar_IdEEPNS1_10MediaFrameENS1_6detail9VectorRefENSU_9OpaqueRefEEEESaISX_EEE3$_0E10_M_managerERSt9_Any_dataRKS13_St18_Manager_operation"(ptr noundef nonnull align 8 dereferenceable(16) %0, ptr noundef nonnull align 8 dereferenceable(16) %1, i32 noundef %2) #1 align 2 {
  %4 = alloca ptr, align 8
  %5 = alloca ptr, align 8
  %6 = alloca i32, align 4
  store ptr %0, ptr %4, align 8
  store ptr %1, ptr %5, align 8
  store i32 %2, ptr %6, align 4
  %7 = load i32, ptr %6, align 4
  switch i32 %7, label %16 [
    i32 0, label %8
    i32 1, label %11
  ]

8:                                                ; preds = %3
  %9 = load ptr, ptr %4, align 8
  %10 = call noundef nonnull align 8 dereferenceable(8) ptr @_ZNSt9_Any_data9_M_accessIPKSt9type_infoEERT_v(ptr noundef nonnull align 8 dereferenceable(16) %9) #3
  store ptr @"_ZTIZN2cv4gapi3wip5asyncERNS_9GCompiledEOSt8functionIFvNSt15__exception_ptr13exception_ptrEEEOSt6vectorINS_7GRunArgESaISB_EEOSA_INS_4util7variantIJPNS_4UMatEPNS_3MatEPNS_4RMatEPNS_7Scalar_IdEEPNS_10MediaFrameENS_6detail9VectorRefENSS_9OpaqueRefEEEESaISV_EEE3$_0", ptr %10, align 8
  br label %21

11:                                               ; preds = %3
  %12 = load ptr, ptr %5, align 8
  %13 = call noundef ptr @"_ZNSt14_Function_base13_Base_managerIZN2cv4gapi3wip5asyncERNS1_9GCompiledEOSt8functionIFvNSt15__exception_ptr13exception_ptrEEEOSt6vectorINS1_7GRunArgESaISD_EEOSC_INS1_4util7variantIJPNS1_4UMatEPNS1_3MatEPNS1_4RMatEPNS1_7Scalar_IdEEPNS1_10MediaFrameENS1_6detail9VectorRefENSU_9OpaqueRefEEEESaISX_EEE3$_0E14_M_get_pointerERKSt9_Any_data"(ptr noundef nonnull align 8 dereferenceable(16) %12) #3
  %14 = load ptr, ptr %4, align 8
  %15 = call noundef nonnull align 8 dereferenceable(8) ptr @"_ZNSt9_Any_data9_M_accessIPZN2cv4gapi3wip5asyncERNS1_9GCompiledEOSt8functionIFvNSt15__exception_ptr13exception_ptrEEEOSt6vectorINS1_7GRunArgESaISD_EEOSC_INS1_4util7variantIJPNS1_4UMatEPNS1_3MatEPNS1_4RMatEPNS1_7Scalar_IdEEPNS1_10MediaFrameENS1_6detail9VectorRefENSU_9OpaqueRefEEEESaISX_EEE3$_0EERT_v"(ptr noundef nonnull align 8 dereferenceable(16) %14) #3
  store ptr %13, ptr %15, align 8
  br label %21

16:                                               ; preds = %3
  %17 = load ptr, ptr %4, align 8
  %18 = load ptr, ptr %5, align 8
  %19 = load i32, ptr %6, align 4
  %20 = call noundef zeroext i1 @"_ZNSt14_Function_base13_Base_managerIZN2cv4gapi3wip5asyncERNS1_9GCompiledEOSt8functionIFvNSt15__exception_ptr13exception_ptrEEEOSt6vectorINS1_7GRunArgESaISD_EEOSC_INS1_4util7variantIJPNS1_4UMatEPNS1_3MatEPNS1_4RMatEPNS1_7Scalar_IdEEPNS1_10MediaFrameENS1_6detail9VectorRefENSU_9OpaqueRefEEEESaISX_EEE3$_0E10_M_managerERSt9_Any_dataRKS13_St18_Manager_operation"(ptr noundef nonnull align 8 dereferenceable(16) %17, ptr noundef nonnull align 8 dereferenceable(16) %18, i32 noundef %19)
  br label %21

21:                                               ; preds = %16, %11, %8
  ret i1 false
}